target datalayout = "e-m:e-p270:32:32-p271:32:32-p272:64:64-i64:64-i128:128-f80:128-n8:16:32:64-S128"
target triple = "x86_64-pc-linux-gnu"

%struct.mbedtls_asn1_buf = type { i32, i64, ptr }

@.str.25 = private unnamed_addr constant [122 x i8] c"generated/home/dtcxzyw/WorkSpace/Projects/compilers/llvm-opt-benchmark/bench/lief/bench_build/mbed_src/library/x509_crt.c\00", align 1

; Function Attrs: inlinehint nounwind uwtable
define internal i32 @mbedtls_error_add(i32 noundef %0, i32 noundef %1, ptr noundef %2, i32 noundef %3) #9 {
  %5 = alloca i32, align 4
  %6 = alloca i32, align 4
  %7 = alloca ptr, align 8
  %8 = alloca i32, align 4
  store i32 %0, ptr %5, align 4, !tbaa !12
  store i32 %1, ptr %6, align 4, !tbaa !12
  store ptr %2, ptr %7, align 8, !tbaa !8
  store i32 %3, ptr %8, align 4, !tbaa !12
  %9 = load i32, ptr %5, align 4, !tbaa !12
  %10 = load i32, ptr %6, align 4, !tbaa !12
  %11 = add nsw i32 %9, %10
  ret i32 %11
}

; Function Attrs: nounwind uwtable
define internal i32 @x509_get_subject_key_id(ptr noundef %0, ptr noundef %1, ptr noundef %2) #0 {
  %4 = alloca i32, align 4
  %5 = alloca ptr, align 8
  %6 = alloca ptr, align 8
  %7 = alloca ptr, align 8
  %8 = alloca i32, align 4
  %9 = alloca i64, align 8
  %10 = alloca i32, align 4
  store ptr %0, ptr %5, align 8, !tbaa !62
  store ptr %1, ptr %6, align 8, !tbaa !8
  store ptr %2, ptr %7, align 8, !tbaa !77
  call void @llvm.lifetime.start.p0(i64 4, ptr %8) #10
  store i32 -110, ptr %8, align 4, !tbaa !12
  call void @llvm.lifetime.start.p0(i64 8, ptr %9) #10
  store i64 0, ptr %9, align 8, !tbaa !10
  %11 = load ptr, ptr %5, align 8, !tbaa !62
  %12 = load ptr, ptr %6, align 8, !tbaa !8
  %13 = call i32 @mbedtls_asn1_get_tag(ptr noundef %11, ptr noundef %12, ptr noundef %9, i32 noundef 4)
  store i32 %13, ptr %8, align 4, !tbaa !12
  %14 = icmp ne i32 %13, 0
  br i1 %14, label %15, label %18

15:                                               ; preds = %3
  %16 = load i32, ptr %8, align 4, !tbaa !12
  %17 = call i32 @mbedtls_error_add(i32 noundef -9472, i32 noundef %16, ptr noundef @.str.25, i32 noundef 596)
  store i32 %17, ptr %4, align 4
  store i32 1, ptr %10, align 4
  br label %39

18:                                               ; preds = %3
  %19 = load i64, ptr %9, align 8, !tbaa !10
  %20 = load ptr, ptr %7, align 8, !tbaa !77
  %21 = getelementptr inbounds nuw %struct.mbedtls_asn1_buf, ptr %20, i32 0, i32 1
  store i64 %19, ptr %21, align 8, !tbaa !79
  %22 = load ptr, ptr %7, align 8, !tbaa !77
  %23 = getelementptr inbounds nuw %struct.mbedtls_asn1_buf, ptr %22, i32 0, i32 0
  store i32 4, ptr %23, align 8, !tbaa !119
  %24 = load ptr, ptr %5, align 8, !tbaa !62
  %25 = load ptr, ptr %24, align 8, !tbaa !8
  %26 = load ptr, ptr %7, align 8, !tbaa !77
  %27 = getelementptr inbounds nuw %struct.mbedtls_asn1_buf, ptr %26, i32 0, i32 2
  store ptr %25, ptr %27, align 8, !tbaa !80
  %28 = load i64, ptr %9, align 8, !tbaa !10
  %29 = load ptr, ptr %5, align 8, !tbaa !62
  %30 = load ptr, ptr %29, align 8, !tbaa !8
  %31 = getelementptr inbounds nuw i8, ptr %30, i64 %28
  store ptr %31, ptr %29, align 8, !tbaa !8
  %32 = load ptr, ptr %5, align 8, !tbaa !62
  %33 = load ptr, ptr %32, align 8, !tbaa !8
  %34 = load ptr, ptr %6, align 8, !tbaa !8
  %35 = icmp ne ptr %33, %34
  br i1 %35, label %36, label %38

36:                                               ; preds = %18
  %37 = call i32 @mbedtls_error_add(i32 noundef -9472, i32 noundef -102, ptr noundef @.str.25, i32 noundef 606)
  store i32 %37, ptr %4, align 4
  store i32 1, ptr %10, align 4
  br label %39

38:                                               ; preds = %18
  store i32 0, ptr %4, align 4
  store i32 1, ptr %10, align 4
  br label %39

39:                                               ; preds = %38, %36, %15
  call void @llvm.lifetime.end.p0(i64 8, ptr %9) #10
  call void @llvm.lifetime.end.p0(i64 4, ptr %8) #10
  %40 = load i32, ptr %4, align 4
  ret i32 %40
}