; Function Attrs: nounwind uwtable
define internal fastcc range(i32 -2147483648, 2147474176) i32 @x509_get_subject_key_id(ptr noundef nonnull %0, ptr noundef %1, ptr noundef nonnull writeonly captures(none) %2) unnamed_addr #0 {
  %4 = alloca i64, align 8
  call void @llvm.lifetime.start.p0(i64 8, ptr nonnull %4) #17
  store i64 0, ptr %4, align 8, !tbaa !25
  %5 = call i32 @mbedtls_asn1_get_tag(ptr noundef nonnull %0, ptr noundef %1, ptr noundef nonnull %4, i32 noundef 4) #17
  %.not = icmp eq i32 %5, 0
  br i1 %.not, label %8, label %6

6:                                                ; preds = %3
  %7 = add nsw i32 %5, -9472
  br label %14

8:                                                ; preds = %3
  %9 = load i64, ptr %4, align 8, !tbaa !25
  %10 = getelementptr inbounds nuw i8, ptr %2, i64 8
  store i64 %9, ptr %10, align 8, !tbaa !39
  store i32 4, ptr %2, align 8, !tbaa !42
  %11 = load ptr, ptr %0, align 8, !tbaa !24
  %12 = getelementptr inbounds nuw i8, ptr %2, i64 16
  store ptr %11, ptr %12, align 8, !tbaa !41
  %13 = getelementptr inbounds nuw i8, ptr %11, i64 %9
  store ptr %13, ptr %0, align 8, !tbaa !24
  %.not11 = icmp eq ptr %13, %1
  %spec.select = select i1 %.not11, i32 0, i32 -9574
  br label %14

14:                                               ; preds = %8, %6
  %.0 = phi i32 [ %7, %6 ], [ %spec.select, %8 ]
  call void @llvm.lifetime.end.p0(i64 8, ptr nonnull %4) #17
  ret i32 %.0
}